; ModuleID = '51/43.c'
source_filename = "51/43.c"
target datalayout = "e-m:e-p270:32:32-p271:32:32-p272:64:64-i64:64-f80:128-n8:16:32:64-S128"
target triple = "x86_64-pc-linux-gnu"

@.str = private unnamed_addr constant [3 x i8] c"%d\00", align 1
@.str.1 = private unnamed_addr constant [3 x i8] c"%s\00", align 1
@.str.2 = private unnamed_addr constant [4 x i8] c"%d\0A\00", align 1
@.str.3 = private unnamed_addr constant [3 x i8] c"%c\00", align 1
@.str.4 = private unnamed_addr constant [2 x i8] c"\0A\00", align 1
@.str.5 = private unnamed_addr constant [3 x i8] c"NO\00", align 1

; Function Attrs: noinline nounwind uwtable
define dso_local i32 @main() #0 {
  %1 = alloca i32, align 4
  %2 = alloca [501 x i8], align 16
  %3 = alloca [500 x [500 x i32]], align 16
  %4 = alloca i32, align 4
  %5 = alloca i32, align 4
  %6 = alloca i32, align 4
  %7 = alloca i32, align 4
  %8 = alloca i32, align 4
  %9 = alloca i32, align 4
  %10 = alloca i32, align 4
  %11 = alloca i32, align 4
  store i32 0, i32* %1, align 4
  %12 = bitcast [500 x [500 x i32]]* %3 to i8*
  call void @llvm.memset.p0i8.i64(i8* align 16 %12, i8 0, i64 1000000, i1 false)
  store i32 1, i32* %5, align 4
  store i32 1, i32* %6, align 4
  store i32 1, i32* %8, align 4
  %13 = call i32 (i8*, ...) @__isoc99_scanf(i8* getelementptr inbounds ([3 x i8], [3 x i8]* @.str, i64 0, i64 0), i32* %4)
  %14 = getelementptr inbounds [501 x i8], [501 x i8]* %2, i64 0, i64 0
  %15 = call i32 (i8*, ...) @__isoc99_scanf(i8* getelementptr inbounds ([3 x i8], [3 x i8]* @.str.1, i64 0, i64 0), i8* %14)
  store i32 0, i32* %9, align 4
  br label %16

16:                                               ; preds = %93, %0
  %17 = load i32, i32* %9, align 4
  %18 = load i32, i32* %4, align 4
  %19 = add nsw i32 %17, %18
  %20 = sub nsw i32 %19, 1
  %21 = sext i32 %20 to i64
  %22 = getelementptr inbounds [501 x i8], [501 x i8]* %2, i64 0, i64 %21
  %23 = load i8, i8* %22, align 1
  %24 = sext i8 %23 to i32
  %25 = icmp ne i32 %24, 0
  br i1 %25, label %26, label %96

26:                                               ; preds = %16
  store i32 1, i32* %7, align 4
  %27 = load i32, i32* %9, align 4
  %28 = add nsw i32 %27, 1
  store i32 %28, i32* %10, align 4
  br label %29

29:                                               ; preds = %79, %26
  %30 = load i32, i32* %10, align 4
  %31 = load i32, i32* %4, align 4
  %32 = add nsw i32 %30, %31
  %33 = sub nsw i32 %32, 1
  %34 = sext i32 %33 to i64
  %35 = getelementptr inbounds [501 x i8], [501 x i8]* %2, i64 0, i64 %34
  %36 = load i8, i8* %35, align 1
  %37 = sext i8 %36 to i32
  %38 = icmp ne i32 %37, 0
  br i1 %38, label %39, label %82

39:                                               ; preds = %29
  store i32 0, i32* %11, align 4
  br label %40

40:                                               ; preds = %63, %39
  %41 = load i32, i32* %11, align 4
  %42 = load i32, i32* %4, align 4
  %43 = icmp slt i32 %41, %42
  br i1 %43, label %44, label %66

44:                                               ; preds = %40
  %45 = load i32, i32* %9, align 4
  %46 = load i32, i32* %11, align 4
  %47 = add nsw i32 %45, %46
  %48 = sext i32 %47 to i64
  %49 = getelementptr inbounds [501 x i8], [501 x i8]* %2, i64 0, i64 %48
  %50 = load i8, i8* %49, align 1
  %51 = sext i8 %50 to i32
  %52 = load i32, i32* %10, align 4
  %53 = load i32, i32* %11, align 4
  %54 = add nsw i32 %52, %53
  %55 = sext i32 %54 to i64
  %56 = getelementptr inbounds [501 x i8], [501 x i8]* %2, i64 0, i64 %55
  %57 = load i8, i8* %56, align 1
  %58 = sext i8 %57 to i32
  %59 = icmp ne i32 %51, %58
  br i1 %59, label %60, label %61

60:                                               ; preds = %44
  store i32 0, i32* %6, align 4
  br label %66

61:                                               ; preds = %44
  store i32 1, i32* %6, align 4
  br label %62

62:                                               ; preds = %61
  br label %63

63:                                               ; preds = %62
  %64 = load i32, i32* %11, align 4
  %65 = add nsw i32 %64, 1
  store i32 %65, i32* %11, align 4
  br label %40

66:                                               ; preds = %60, %40
  %67 = load i32, i32* %6, align 4
  %68 = icmp ne i32 %67, 0
  br i1 %68, label %69, label %78

69:                                               ; preds = %66
  %70 = load i32, i32* %7, align 4
  %71 = add nsw i32 %70, 1
  store i32 %71, i32* %7, align 4
  %72 = load i32, i32* %7, align 4
  %73 = load i32, i32* %8, align 4
  %74 = icmp sgt i32 %72, %73
  br i1 %74, label %75, label %77

75:                                               ; preds = %69
  %76 = load i32, i32* %7, align 4
  store i32 %76, i32* %8, align 4
  br label %77

77:                                               ; preds = %75, %69
  br label %78

78:                                               ; preds = %77, %66
  br label %79

79:                                               ; preds = %78
  %80 = load i32, i32* %10, align 4
  %81 = add nsw i32 %80, 1
  store i32 %81, i32* %10, align 4
  br label %29

82:                                               ; preds = %29
  %83 = load i32, i32* %7, align 4
  %84 = icmp sgt i32 %83, 1
  br i1 %84, label %85, label %92

85:                                               ; preds = %82
  %86 = load i32, i32* %9, align 4
  %87 = sext i32 %86 to i64
  %88 = getelementptr inbounds [500 x [500 x i32]], [500 x [500 x i32]]* %3, i64 0, i64 %87
  %89 = load i32, i32* %7, align 4
  %90 = sext i32 %89 to i64
  %91 = getelementptr inbounds [500 x i32], [500 x i32]* %88, i64 0, i64 %90
  store i32 1, i32* %91, align 4
  br label %92

92:                                               ; preds = %85, %82
  br label %93

93:                                               ; preds = %92
  %94 = load i32, i32* %9, align 4
  %95 = add nsw i32 %94, 1
  store i32 %95, i32* %9, align 4
  br label %16

96:                                               ; preds = %16
  %97 = load i32, i32* %8, align 4
  %98 = icmp sgt i32 %97, 1
  br i1 %98, label %99, label %138

99:                                               ; preds = %96
  %100 = load i32, i32* %8, align 4
  %101 = call i32 (i8*, ...) @printf(i8* getelementptr inbounds ([4 x i8], [4 x i8]* @.str.2, i64 0, i64 0), i32 %100)
  store i32 0, i32* %9, align 4
  br label %102

102:                                              ; preds = %134, %99
  %103 = load i32, i32* %9, align 4
  %104 = icmp slt i32 %103, 500
  br i1 %104, label %105, label %137

105:                                              ; preds = %102
  %106 = load i32, i32* %9, align 4
  %107 = sext i32 %106 to i64
  %108 = getelementptr inbounds [500 x [500 x i32]], [500 x [500 x i32]]* %3, i64 0, i64 %107
  %109 = load i32, i32* %8, align 4
  %110 = sext i32 %109 to i64
  %111 = getelementptr inbounds [500 x i32], [500 x i32]* %108, i64 0, i64 %110
  %112 = load i32, i32* %111, align 4
  %113 = icmp eq i32 %112, 1
  br i1 %113, label %114, label %133

114:                                              ; preds = %105
  store i32 0, i32* %10, align 4
  br label %115

115:                                              ; preds = %128, %114
  %116 = load i32, i32* %10, align 4
  %117 = load i32, i32* %4, align 4
  %118 = icmp slt i32 %116, %117
  br i1 %118, label %119, label %131

119:                                              ; preds = %115
  %120 = load i32, i32* %9, align 4
  %121 = load i32, i32* %10, align 4
  %122 = add nsw i32 %120, %121
  %123 = sext i32 %122 to i64
  %124 = getelementptr inbounds [501 x i8], [501 x i8]* %2, i64 0, i64 %123
  %125 = load i8, i8* %124, align 1
  %126 = sext i8 %125 to i32
  %127 = call i32 (i8*, ...) @printf(i8* getelementptr inbounds ([3 x i8], [3 x i8]* @.str.3, i64 0, i64 0), i32 %126)
  br label %128

128:                                              ; preds = %119
  %129 = load i32, i32* %10, align 4
  %130 = add nsw i32 %129, 1
  store i32 %130, i32* %10, align 4
  br label %115

131:                                              ; preds = %115
  %132 = call i32 (i8*, ...) @printf(i8* getelementptr inbounds ([2 x i8], [2 x i8]* @.str.4, i64 0, i64 0))
  br label %133

133:                                              ; preds = %131, %105
  br label %134

134:                                              ; preds = %133
  %135 = load i32, i32* %9, align 4
  %136 = add nsw i32 %135, 1
  store i32 %136, i32* %9, align 4
  br label %102

137:                                              ; preds = %102
  br label %140

138:                                              ; preds = %96
  %139 = call i32 (i8*, ...) @printf(i8* getelementptr inbounds ([3 x i8], [3 x i8]* @.str.5, i64 0, i64 0))
  br label %140

140:                                              ; preds = %138, %137
  ret i32 0
}

; Function Attrs: argmemonly nounwind willreturn
declare void @llvm.memset.p0i8.i64(i8* nocapture writeonly, i8, i64, i1 immarg) #1

declare dso_local i32 @__isoc99_scanf(i8*, ...) #2

declare dso_local i32 @printf(i8*, ...) #2


!llvm.module.flags = !{!0}
!llvm.ident = !{!1}

!0 = !{i32 1, !"wchar_size", i32 4}
!1 = !{!"clang version 10.0.0-4ubuntu1 "}
